target datalayout = "e-m:e-p270:32:32-p271:32:32-p272:64:64-i64:64-i128:128-f80:128-n8:16:32:64-S128"
target triple = "x86_64-unknown-linux-gnu"

%"class.v8impl::RefTracker" = type { ptr, ptr, ptr }
%"class.v8impl::Finalizer" = type { ptr, ptr, ptr, ptr, ptr }

; Function Attrs: mustprogress nounwind uwtable
define linkonce_odr dso_local void @_ZN2v86String26ExternalStringResourceBaseD2Ev(ptr noundef nonnull align 8 dereferenceable(8) %this) unnamed_addr #4 comdat align 2 {
entry:
  %this.addr = alloca ptr, align 8
  store ptr %this, ptr %this.addr, align 8
  ret void
}

; Function Attrs: mustprogress nounwind uwtable
define linkonce_odr dso_local void @_ZN6v8impl9FinalizerD2Ev(ptr noundef nonnull align 8 dereferenceable(40) %this) unnamed_addr #4 comdat align 2 {
entry:
  %this.addr = alloca ptr, align 8
  store ptr %this, ptr %this.addr, align 8
  ret void
}

; Function Attrs: mustprogress nounwind uwtable
define linkonce_odr dso_local void @_ZN6v8impl10RefTrackerD2Ev(ptr noundef nonnull align 8 dereferenceable(24) %this) unnamed_addr #4 comdat align 2 {
entry:
  %this.addr = alloca ptr, align 8
  store ptr %this, ptr %this.addr, align 8
  ret void
}

; Function Attrs: mustprogress nounwind uwtable
define linkonce_odr dso_local void @_ZN6v8impl10RefTracker6UnlinkEv(ptr noundef nonnull align 8 dereferenceable(24) %this) #4 comdat align 2 {
entry:
  %this.addr = alloca ptr, align 8
  store ptr %this, ptr %this.addr, align 8
  %this1 = load ptr, ptr %this.addr, align 8
  %prev_ = getelementptr inbounds %"class.v8impl::RefTracker", ptr %this1, i32 0, i32 2
  %0 = load ptr, ptr %prev_, align 8
  %cmp = icmp ne ptr %0, null
  br i1 %cmp, label %if.then, label %if.end

if.then:                                          ; preds = %entry
  %next_ = getelementptr inbounds %"class.v8impl::RefTracker", ptr %this1, i32 0, i32 1
  %1 = load ptr, ptr %next_, align 8
  %prev_2 = getelementptr inbounds %"class.v8impl::RefTracker", ptr %this1, i32 0, i32 2
  %2 = load ptr, ptr %prev_2, align 8
  %next_3 = getelementptr inbounds %"class.v8impl::RefTracker", ptr %2, i32 0, i32 1
  store ptr %1, ptr %next_3, align 8
  br label %if.end

if.end:                                           ; preds = %if.then, %entry
  %next_4 = getelementptr inbounds %"class.v8impl::RefTracker", ptr %this1, i32 0, i32 1
  %3 = load ptr, ptr %next_4, align 8
  %cmp5 = icmp ne ptr %3, null
  br i1 %cmp5, label %if.then6, label %if.end10

if.then6:                                         ; preds = %if.end
  %prev_7 = getelementptr inbounds %"class.v8impl::RefTracker", ptr %this1, i32 0, i32 2
  %4 = load ptr, ptr %prev_7, align 8
  %next_8 = getelementptr inbounds %"class.v8impl::RefTracker", ptr %this1, i32 0, i32 1
  %5 = load ptr, ptr %next_8, align 8
  %prev_9 = getelementptr inbounds %"class.v8impl::RefTracker", ptr %5, i32 0, i32 2
  store ptr %4, ptr %prev_9, align 8
  br label %if.end10

if.end10:                                         ; preds = %if.then6, %if.end
  %prev_11 = getelementptr inbounds %"class.v8impl::RefTracker", ptr %this1, i32 0, i32 2
  store ptr null, ptr %prev_11, align 8
  %next_12 = getelementptr inbounds %"class.v8impl::RefTracker", ptr %this1, i32 0, i32 1
  store ptr null, ptr %next_12, align 8
  ret void
}

; Function Attrs: mustprogress nounwind uwtable
define linkonce_odr dso_local void @_ZN2v86String22ExternalStringResourceD2Ev(ptr noundef nonnull align 8 dereferenceable(16) %this) unnamed_addr #4 comdat align 2 {
entry:
  %this.addr = alloca ptr, align 8
  store ptr %this, ptr %this.addr, align 8
  %this1 = load ptr, ptr %this.addr, align 8
  call void @_ZN2v86String26ExternalStringResourceBaseD2Ev(ptr noundef nonnull align 8 dereferenceable(8) %this1) #3
  ret void
}

; Function Attrs: mustprogress nounwind uwtable
define internal void @_ZN6v8impl12_GLOBAL__N_121TrackedStringResourceD2Ev(ptr noundef nonnull align 8 dereferenceable(64) %this) unnamed_addr #4 align 2 {
entry:
  %this.addr = alloca ptr, align 8
  %cleanup.dest.slot = alloca i32, align 4
  store ptr %this, ptr %this.addr, align 8
  %this1 = load ptr, ptr %this.addr, align 8
  store ptr getelementptr inbounds ({ [5 x ptr], [5 x ptr] }, ptr @_ZTVN6v8impl12_GLOBAL__N_121TrackedStringResourceE, i32 0, i32 0, i32 2), ptr %this1, align 8
  %add.ptr = getelementptr inbounds i8, ptr %this1, i64 40
  store ptr getelementptr inbounds ({ [5 x ptr], [5 x ptr] }, ptr @_ZTVN6v8impl12_GLOBAL__N_121TrackedStringResourceE, i32 0, i32 1, i32 2), ptr %add.ptr, align 8
  %finalize_callback_ = getelementptr inbounds %"class.v8impl::Finalizer", ptr %this1, i32 0, i32 2
  %0 = load ptr, ptr %finalize_callback_, align 8
  %cmp = icmp eq ptr %0, null
  br i1 %cmp, label %if.then, label %if.end

if.then:                                          ; preds = %entry
  store i32 1, ptr %cleanup.dest.slot, align 4
  br label %cleanup

if.end:                                           ; preds = %entry
  %env_ = getelementptr inbounds %"class.v8impl::Finalizer", ptr %this1, i32 0, i32 1
  %1 = load ptr, ptr %env_, align 8
  %cmp2 = icmp eq ptr %1, null
  br i1 %cmp2, label %if.then3, label %if.else

if.then3:                                         ; preds = %if.end
  %finalize_callback_4 = getelementptr inbounds %"class.v8impl::Finalizer", ptr %this1, i32 0, i32 2
  %2 = load ptr, ptr %finalize_callback_4, align 8
  %finalize_data_ = getelementptr inbounds %"class.v8impl::Finalizer", ptr %this1, i32 0, i32 3
  %3 = load ptr, ptr %finalize_data_, align 8
  %finalize_hint_ = getelementptr inbounds %"class.v8impl::Finalizer", ptr %this1, i32 0, i32 4
  %4 = load ptr, ptr %finalize_hint_, align 8
  call void %2(ptr noundef null, ptr noundef %3, ptr noundef %4)
  br label %if.end10

if.else:                                          ; preds = %if.end
  %add.ptr5 = getelementptr inbounds i8, ptr %this1, i64 40
  call void @_ZN6v8impl10RefTracker6UnlinkEv(ptr noundef nonnull align 8 dereferenceable(24) %add.ptr5)
  %env_6 = getelementptr inbounds %"class.v8impl::Finalizer", ptr %this1, i32 0, i32 1
  %5 = load ptr, ptr %env_6, align 8
  %finalize_callback_7 = getelementptr inbounds %"class.v8impl::Finalizer", ptr %this1, i32 0, i32 2
  %6 = load ptr, ptr %finalize_callback_7, align 8
  %finalize_data_8 = getelementptr inbounds %"class.v8impl::Finalizer", ptr %this1, i32 0, i32 3
  %7 = load ptr, ptr %finalize_data_8, align 8
  %finalize_hint_9 = getelementptr inbounds %"class.v8impl::Finalizer", ptr %this1, i32 0, i32 4
  %8 = load ptr, ptr %finalize_hint_9, align 8
  %vtable = load ptr, ptr %5, align 8
  %vfn = getelementptr inbounds ptr, ptr %vtable, i64 1
  %9 = load ptr, ptr %vfn, align 8
  call void %9(ptr noundef nonnull align 8 dereferenceable(189) %5, ptr noundef %6, ptr noundef %7, ptr noundef %8)
  br label %if.end10

if.end10:                                         ; preds = %if.else, %if.then3
  store i32 0, ptr %cleanup.dest.slot, align 4
  br label %cleanup

cleanup:                                          ; preds = %if.end10, %if.then
  %10 = getelementptr inbounds i8, ptr %this1, i64 40
  call void @_ZN6v8impl10RefTrackerD2Ev(ptr noundef nonnull align 8 dereferenceable(24) %10) #3
  call void @_ZN6v8impl9FinalizerD2Ev(ptr noundef nonnull align 8 dereferenceable(40) %this1) #3
  %cleanup.dest = load i32, ptr %cleanup.dest.slot, align 4
  switch i32 %cleanup.dest, label %unreachable [
    i32 0, label %cleanup.cont
    i32 1, label %cleanup.cont
  ]

cleanup.cont:                                     ; preds = %cleanup, %cleanup
  ret void

unreachable:                                      ; preds = %cleanup
  unreachable
}

; Function Attrs: mustprogress nounwind uwtable
define internal void @_ZN6v8impl12_GLOBAL__N_122ExternalStringResourceD2Ev(ptr noundef nonnull align 8 dereferenceable(96) %this) unnamed_addr #4 align 2 {
entry:
  %this.addr = alloca ptr, align 8
  store ptr %this, ptr %this.addr, align 8
  %this1 = load ptr, ptr %this.addr, align 8
  %0 = getelementptr inbounds i8, ptr %this1, i64 16
  call void @_ZN6v8impl12_GLOBAL__N_121TrackedStringResourceD2Ev(ptr noundef nonnull align 8 dereferenceable(64) %0) #3
  call void @_ZN2v86String22ExternalStringResourceD2Ev(ptr noundef nonnull align 8 dereferenceable(16) %this1) #3
  ret void
}

; Function Attrs: nounwind uwtable
define internal void @_ZThn16_N6v8impl12_GLOBAL__N_122ExternalStringResourceD1Ev(ptr noundef %this) unnamed_addr #0 align 2 {
entry:
  %this.addr = alloca ptr, align 8
  store ptr %this, ptr %this.addr, align 8
  %this1 = load ptr, ptr %this.addr, align 8
  %0 = getelementptr inbounds i8, ptr %this1, i64 -16
  tail call void @_ZN6v8impl12_GLOBAL__N_122ExternalStringResourceD2Ev(ptr noundef nonnull align 8 dereferenceable(96) %0) #3
  ret void
}