; Function Attrs: nounwind uwtable
define internal void @_ZThn16_N6v8impl12_GLOBAL__N_122ExternalStringResourceD1Ev(ptr nocapture noundef %this) unnamed_addr #8 align 2 {
entry:
  store ptr getelementptr inbounds ({ [5 x ptr], [5 x ptr] }, ptr @_ZTVN6v8impl12_GLOBAL__N_121TrackedStringResourceE, i64 0, i32 0, i64 2), ptr %this, align 8
  %add.ptr.i.i = getelementptr inbounds i8, ptr %this, i64 40
  store ptr getelementptr inbounds ({ [5 x ptr], [5 x ptr] }, ptr @_ZTVN6v8impl12_GLOBAL__N_121TrackedStringResourceE, i64 0, i32 1, i64 2), ptr %add.ptr.i.i, align 8
  %finalize_callback_.i.i = getelementptr inbounds i8, ptr %this, i64 16
  %0 = load ptr, ptr %finalize_callback_.i.i, align 8
  %cmp.i.i = icmp eq ptr %0, null
  br i1 %cmp.i.i, label %_ZN6v8impl12_GLOBAL__N_122ExternalStringResourceD2Ev.exit, label %if.end.i.i

if.end.i.i:                                       ; preds = %entry
  %env_.i.i = getelementptr inbounds i8, ptr %this, i64 8
  %1 = load ptr, ptr %env_.i.i, align 8
  %cmp2.i.i = icmp eq ptr %1, null
  br i1 %cmp2.i.i, label %if.then3.i.i, label %if.else.i.i

if.then3.i.i:                                     ; preds = %if.end.i.i
  %finalize_data_.i.i = getelementptr inbounds i8, ptr %this, i64 24
  %2 = load ptr, ptr %finalize_data_.i.i, align 8
  %finalize_hint_.i.i = getelementptr inbounds i8, ptr %this, i64 32
  %3 = load ptr, ptr %finalize_hint_.i.i, align 8
  tail call void %0(ptr noundef null, ptr noundef %2, ptr noundef %3) #24
  br label %_ZN6v8impl12_GLOBAL__N_122ExternalStringResourceD2Ev.exit

if.else.i.i:                                      ; preds = %if.end.i.i
  %prev_.i.i.i = getelementptr inbounds i8, ptr %this, i64 56
  %4 = load ptr, ptr %prev_.i.i.i, align 8
  %cmp.not.i.i.i = icmp eq ptr %4, null
  %next_4.phi.trans.insert.i.i.i = getelementptr inbounds i8, ptr %this, i64 48
  %.pre.i.i.i = load ptr, ptr %next_4.phi.trans.insert.i.i.i, align 8
  br i1 %cmp.not.i.i.i, label %if.end.i.i.i, label %if.then.i.i.i

if.then.i.i.i:                                    ; preds = %if.else.i.i
  %next_3.i.i.i = getelementptr inbounds i8, ptr %4, i64 8
  store ptr %.pre.i.i.i, ptr %next_3.i.i.i, align 8
  br label %if.end.i.i.i

if.end.i.i.i:                                     ; preds = %if.then.i.i.i, %if.else.i.i
  %cmp5.not.i.i.i = icmp eq ptr %.pre.i.i.i, null
  br i1 %cmp5.not.i.i.i, label %_ZN6v8impl10RefTracker6UnlinkEv.exit.i.i, label %if.then6.i.i.i

if.then6.i.i.i:                                   ; preds = %if.end.i.i.i
  %5 = load ptr, ptr %prev_.i.i.i, align 8
  %prev_9.i.i.i = getelementptr inbounds i8, ptr %.pre.i.i.i, i64 16
  store ptr %5, ptr %prev_9.i.i.i, align 8
  br label %_ZN6v8impl10RefTracker6UnlinkEv.exit.i.i

_ZN6v8impl10RefTracker6UnlinkEv.exit.i.i:         ; preds = %if.then6.i.i.i, %if.end.i.i.i
  tail call void @llvm.memset.p0.i64(ptr noundef nonnull align 8 dereferenceable(16) %next_4.phi.trans.insert.i.i.i, i8 0, i64 16, i1 false)
  %6 = load ptr, ptr %env_.i.i, align 8
  %7 = load ptr, ptr %finalize_callback_.i.i, align 8
  %finalize_data_8.i.i = getelementptr inbounds i8, ptr %this, i64 24
  %8 = load ptr, ptr %finalize_data_8.i.i, align 8
  %finalize_hint_9.i.i = getelementptr inbounds i8, ptr %this, i64 32
  %9 = load ptr, ptr %finalize_hint_9.i.i, align 8
  %vtable.i.i = load ptr, ptr %6, align 8
  %vfn.i.i = getelementptr inbounds i8, ptr %vtable.i.i, i64 8
  %10 = load ptr, ptr %vfn.i.i, align 8
  tail call void %10(ptr noundef nonnull align 8 dereferenceable(189) %6, ptr noundef %7, ptr noundef %8, ptr noundef %9) #24
  br label %_ZN6v8impl12_GLOBAL__N_122ExternalStringResourceD2Ev.exit

_ZN6v8impl12_GLOBAL__N_122ExternalStringResourceD2Ev.exit: ; preds = %entry, %if.then3.i.i, %_ZN6v8impl10RefTracker6UnlinkEv.exit.i.i
  ret void
}